target datalayout = "e-m:e-p270:32:32-p271:32:32-p272:64:64-i64:64-i128:128-f80:128-n8:16:32:64-S128"
target triple = "x86_64-pc-linux-gnu"

%struct.redisServer = type { i32, i64, ptr, ptr, ptr, i32, i32, i32, i32, i32, ptr, ptr, ptr, ptr, ptr, i32, i32, i32, i32, i64, i32, i32, i32, i32, ptr, i32, i32, [41 x i8], i32, i64, i32, i32, i32, ptr, ptr, i32, i32, i64, ptr, ptr, ptr, ptr, [2 x i32], i32, i32, i32, i32, i32, i32, [16 x ptr], i32, ptr, ptr, i32, [8 x %struct.connListener], i32, %struct.connListener, ptr, ptr, ptr, ptr, ptr, ptr, ptr, ptr, ptr, ptr, i32, ptr, i32, ptr, [3 x %struct.pause_event], [256 x i8], ptr, i64, i32, i32, [128 x i32], i32, i32, i64, i32, i32, i32, i32, i32, i64, i64, i64, i64, i64, i64, i64, i64, i64, i64, double, i64, i64, i64, i64, i64, i64, i64, i64, i64, i64, i64, i64, i64, i64, i64, i64, i64, i64, i64, i64, i64, double, i64, i64, i64, i64, i64, ptr, i64, i64, i64, %struct.malloc_stats, i64, i64, i64, i64, i64, i64, i64, i64, i64, i64, i64, i64, double, [4 x i64], i64, i64, i64, i64, [128 x i64], [128 x i64], i64, i64, [7 x %struct.anon], i64, i64, i64, i64, i64, i64, [4 x %struct.durationStats], i32, i32, i32, i32, i32, i32, i32, i32, i32, i32, i32, i32, i64, i32, i32, i32, i32, i64, i64, i32, i32, i32, i32, i32, ptr, [3 x %struct.clientBufferLimitsConfig], i32, i32, i32, ptr, i32, i32, i32, i32, i32, i32, ptr, ptr, i32, i32, i64, i64, i64, i64, i64, i32, i32, ptr, i32, i32, i64, i64, i64, i64, i64, i32, i32, i64, i32, i32, i32, i32, i32, i32, i32, i32, ptr, i32, i64, i64, i64, i64, i32, ptr, i32, ptr, i32, i32, i32, i64, i64, i64, i64, i32, i32, i32, i32, i32, i32, ptr, i32, i32, ptr, i32, i32, i32, [2 x i32], i32, %struct.redisOpArray, i32, ptr, i32, ptr, i32, i32, i32, i32, i32, i32, i32, [41 x i8], [41 x i8], i64, i64, i64, i64, i32, i32, ptr, i64, i64, %struct.replDataBuf, i64, i64, i32, i32, i32, i32, i32, i32, i32, i32, i32, i64, ptr, i64, ptr, ptr, ptr, i32, i32, ptr, ptr, i32, i32, i32, i64, i64, i64, i64, ptr, ptr, i32, ptr, i64, i32, i32, i32, i64, i32, i32, i32, i32, ptr, i32, i32, [41 x i8], i64, i32, ptr, i32, i32, i64, i64, i32, i32, i32, i32, i32, i64, [3 x i32], i32, i32, i32, [10 x i32], ptr, ptr, i32, i64, ptr, ptr, i32, i32, i32, i32, i64, i64, i64, i64, i64, i64, i64, i64, i64, i64, i32, i32, i64, i64, i32, i64, i64, i64, i64, i64, ptr, ptr, i32, ptr, i32, i32, i32, i32, i64, i64, ptr, ptr, i32, i32, i32, i32, i32, ptr, ptr, ptr, i32, i32, i32, i32, i32, i32, i32, i64, i32, i32, i64, i32, i32, i32, i32, i32, i32, i32, i64, ptr, ptr, i64, ptr, i32, %struct.aclInfo, i32, i64, i32, i32, i32, %struct.redisTLSContextConfig, ptr, ptr, ptr, ptr, ptr, i64, i32, ptr, i32, i32, i32, i64, i32, ptr }
%struct.connListener = type { [16 x i32], i32, ptr, i32, i32, ptr, ptr }
%struct.pause_event = type { i32, i64 }
%struct.malloc_stats = type { i64, i64, i64, i64, i64, i64, i64, i64, i64, i64, i64 }
%struct.anon = type { i64, i64, [16 x i64], i32 }
%struct.durationStats = type { i64, i64, i64 }
%struct.clientBufferLimitsConfig = type { i64, i64, i64 }
%struct.redisOpArray = type { ptr, i32, i32 }
%struct.replDataBuf = type { ptr, i64, i64, i64, i64 }
%struct.aclInfo = type { i64, i64, i64, i64 }
%struct.redisTLSContextConfig = type { ptr, ptr, ptr, ptr, ptr, ptr, ptr, ptr, ptr, ptr, ptr, ptr, i32, i32, i32, i32 }
%struct.dictType = type { ptr, ptr, ptr, ptr, ptr, ptr, ptr, ptr, ptr, ptr, ptr, i8, ptr, ptr, ptr }
%struct.redisDb = type { ptr, ptr, ptr, ptr, ptr, ptr, ptr, i32, i64, i64, ptr }

@lazyfree_objects = internal global i64 0, align 8
@server = external global %struct.redisServer, align 8
@dbDictType = external global %struct.dictType, align 8
@dbExpiresDictType = external global %struct.dictType, align 8

; Function Attrs: inlinehint nounwind uwtable
define internal ptr @ebCreate() #6 {
  ret ptr null
}

; Function Attrs: nounwind uwtable
define dso_local void @emptyDbAsync(ptr noundef %0) #0 {
  %2 = alloca ptr, align 8
  %3 = alloca i32, align 4
  %4 = alloca i32, align 4
  %5 = alloca ptr, align 8
  %6 = alloca ptr, align 8
  %7 = alloca ptr, align 8
  %8 = alloca i64, align 8
  %9 = alloca i64, align 8
  store ptr %0, ptr %2, align 8, !tbaa !60
  call void @llvm.lifetime.start.p0(i64 4, ptr %3) #7
  store i32 0, ptr %3, align 4, !tbaa !30
  call void @llvm.lifetime.start.p0(i64 4, ptr %4) #7
  store i32 1, ptr %4, align 4, !tbaa !30
  %10 = load i32, ptr getelementptr inbounds nuw (%struct.redisServer, ptr @server, i32 0, i32 380), align 8, !tbaa !62
  %11 = icmp ne i32 %10, 0
  br i1 %11, label %12, label %15

12:                                               ; preds = %1
  store i32 14, ptr %3, align 4, !tbaa !30
  %13 = load i32, ptr %4, align 4, !tbaa !30
  %14 = or i32 %13, 2
  store i32 %14, ptr %4, align 4, !tbaa !30
  br label %15

15:                                               ; preds = %12, %1
  call void @llvm.lifetime.start.p0(i64 8, ptr %5) #7
  %16 = load ptr, ptr %2, align 8, !tbaa !60
  %17 = getelementptr inbounds nuw %struct.redisDb, ptr %16, i32 0, i32 0
  %18 = load ptr, ptr %17, align 8, !tbaa !83
  store ptr %18, ptr %5, align 8, !tbaa !13
  call void @llvm.lifetime.start.p0(i64 8, ptr %6) #7
  %19 = load ptr, ptr %2, align 8, !tbaa !60
  %20 = getelementptr inbounds nuw %struct.redisDb, ptr %19, i32 0, i32 1
  %21 = load ptr, ptr %20, align 8, !tbaa !85
  store ptr %21, ptr %6, align 8, !tbaa !13
  call void @llvm.lifetime.start.p0(i64 8, ptr %7) #7
  %22 = load ptr, ptr %2, align 8, !tbaa !60
  %23 = getelementptr inbounds nuw %struct.redisDb, ptr %22, i32 0, i32 2
  %24 = load ptr, ptr %23, align 8, !tbaa !86
  store ptr %24, ptr %7, align 8, !tbaa !5
  %25 = load i32, ptr %3, align 4, !tbaa !30
  %26 = load i32, ptr %4, align 4, !tbaa !30
  %27 = or i32 %26, 4
  %28 = call ptr @kvstoreCreate(ptr noundef @dbDictType, i32 noundef %25, i32 noundef %27)
  %29 = load ptr, ptr %2, align 8, !tbaa !60
  %30 = getelementptr inbounds nuw %struct.redisDb, ptr %29, i32 0, i32 0
  store ptr %28, ptr %30, align 8, !tbaa !83
  %31 = load i32, ptr %3, align 4, !tbaa !30
  %32 = load i32, ptr %4, align 4, !tbaa !30
  %33 = call ptr @kvstoreCreate(ptr noundef @dbExpiresDictType, i32 noundef %31, i32 noundef %32)
  %34 = load ptr, ptr %2, align 8, !tbaa !60
  %35 = getelementptr inbounds nuw %struct.redisDb, ptr %34, i32 0, i32 1
  store ptr %33, ptr %35, align 8, !tbaa !85
  %36 = call ptr @ebCreate()
  %37 = load ptr, ptr %2, align 8, !tbaa !60
  %38 = getelementptr inbounds nuw %struct.redisDb, ptr %37, i32 0, i32 2
  store ptr %36, ptr %38, align 8, !tbaa !86
  %39 = load ptr, ptr %5, align 8, !tbaa !13
  %40 = call i64 @kvstoreSize(ptr noundef %39)
  store i64 %40, ptr %8, align 8, !tbaa !11
  %41 = load i64, ptr %8, align 8
  %42 = atomicrmw add ptr @lazyfree_objects, i64 %41 monotonic, align 8
  store i64 %42, ptr %9, align 8
  %43 = load ptr, ptr %5, align 8, !tbaa !13
  %44 = load ptr, ptr %6, align 8, !tbaa !13
  %45 = load ptr, ptr %7, align 8, !tbaa !5
  call void (ptr, i32, ...) @bioCreateLazyFreeJob(ptr noundef @lazyfreeFreeDatabase, i32 noundef 3, ptr noundef %43, ptr noundef %44, ptr noundef %45)
  call void @llvm.lifetime.end.p0(i64 8, ptr %7) #7
  call void @llvm.lifetime.end.p0(i64 8, ptr %6) #7
  call void @llvm.lifetime.end.p0(i64 8, ptr %5) #7
  call void @llvm.lifetime.end.p0(i64 4, ptr %4) #7
  call void @llvm.lifetime.end.p0(i64 4, ptr %3) #7
  ret void
}