; Function Attrs: nounwind uwtable
define dso_local void @emptyDbAsync(ptr noundef captures(none) %0) local_unnamed_addr #0 {
  %2 = load i32, ptr getelementptr inbounds nuw (i8, ptr @server, i64 7888), align 8, !tbaa !39
  %.not = icmp eq i32 %2, 0
  %spec.select = select i1 %.not, i32 1, i32 3
  %spec.select16 = select i1 %.not, i32 0, i32 14
  %3 = load ptr, ptr %0, align 8, !tbaa !63
  %4 = getelementptr inbounds nuw i8, ptr %0, i64 8
  %5 = load ptr, ptr %4, align 8, !tbaa !65
  %6 = getelementptr inbounds nuw i8, ptr %0, i64 16
  %7 = load ptr, ptr %6, align 8, !tbaa !66
  %8 = or disjoint i32 %spec.select, 4
  %9 = tail call ptr @kvstoreCreate(ptr noundef nonnull @dbDictType, i32 noundef %spec.select16, i32 noundef %8) #6
  store ptr %9, ptr %0, align 8, !tbaa !63
  %10 = tail call ptr @kvstoreCreate(ptr noundef nonnull @dbExpiresDictType, i32 noundef %spec.select16, i32 noundef %spec.select) #6
  store ptr %10, ptr %4, align 8, !tbaa !65
  store ptr null, ptr %6, align 8, !tbaa !66
  %11 = tail call i64 @kvstoreSize(ptr noundef %3) #6
  %12 = atomicrmw add ptr @lazyfree_objects, i64 %11 monotonic, align 8
  tail call void (ptr, i32, ...) @bioCreateLazyFreeJob(ptr noundef nonnull @lazyfreeFreeDatabase, i32 noundef 3, ptr noundef %3, ptr noundef %5, ptr noundef %7) #6
  ret void
}